Certificate:
    Data:
        Version: 3 (0x2)
        Serial Number:
            f2:cb:e8:21:42:20:d6:84
        Signature Algorithm: sha1WithRSAEncryption
        Issuer: C=DE, ST=NW, L=Bonn, O=MirBSD, CN=MCA \xE2\x85\xA3/emailAddress=ca@mirbsd.org
        Validity
            Not Before: Mar 29 12:49:27 2014 GMT
            Not After : Mar 29 12:49:27 2034 GMT
        Subject: C=DE, ST=NW, L=Bonn, O=MirBSD, CN=MCA \xE2\x85\xA3/emailAddress=ca@mirbsd.org
        Subject Public Key Info:
            Public Key Algorithm: rsaEncryption
            RSA Public Key: (4096 bit)
                Modulus (4096 bit):
                    00:df:de:5c:8d:73:4a:87:1e:cc:e7:04:c9:bc:8f:
                    af:06:77:30:95:4b:cc:3d:d0:62:f3:d5:6f:d7:dc:
                    71:53:29:db:56:f0:9a:49:6c:ef:57:da:94:12:d5:
                    b5:09:7e:1e:8e:36:52:9d:e4:b7:db:80:0c:50:5d:
                    93:83:98:b1:5e:c6:a1:2e:8a:1a:53:8b:35:c2:63:
                    ec:36:c3:29:59:a6:bd:9a:20:20:1d:60:41:da:48:
                    6c:0d:7e:ca:0b:dd:46:16:78:f3:41:ff:25:72:08:
                    0d:a5:d3:61:06:76:2e:ec:b3:19:e3:84:6a:29:e6:
                    25:6e:a5:28:bb:0c:c7:68:47:26:7e:7c:71:bc:8a:
                    06:3e:b5:02:74:cd:99:55:e7:6b:73:b2:cf:6a:21:
                    32:1f:c5:1b:85:99:aa:8f:27:60:02:3d:4d:09:ab:
                    67:45:aa:d7:f8:cc:7a:2a:5f:34:89:c0:69:61:8b:
                    04:0b:b5:c0:6d:39:db:64:45:76:40:82:95:5e:d1:
                    95:89:28:78:7a:c0:d9:9f:0e:99:e5:9b:f3:d2:35:
                    6e:46:21:f6:ec:3f:71:4c:4e:fb:bc:61:94:01:fa:
                    a9:55:db:43:43:cb:ee:68:59:67:1e:3c:09:e3:22:
                    52:4d:7e:74:78:78:db:0e:df:a6:c9:3c:e7:c9:c9:
                    69:3b:d8:37:fc:2a:f6:0e:29:dc:23:30:64:87:b4:
                    ac:43:52:c7:0e:01:24:f7:b8:ad:80:58:d4:a7:e7:
                    ae:92:c8:64:e1:cf:7a:e5:a4:a9:7b:da:a9:05:26:
                    14:e0:81:93:7b:16:cb:14:03:5e:f6:aa:66:ce:85:
                    b8:a3:d1:1f:d6:69:ae:6f:c6:23:67:d4:c4:4e:5b:
                    3e:a5:b8:54:0f:26:c3:f0:71:f4:1f:57:72:bf:9d:
                    f5:6b:f0:a3:d9:c3:55:ea:c2:f3:fc:c0:62:54:df:
                    cc:4d:3e:4b:92:36:0f:3b:22:4e:ee:cc:6e:e6:ba:
                    b3:29:17:c4:60:ac:0a:15:f1:33:b8:2d:04:aa:38:
                    31:aa:a8:4c:75:86:62:62:a5:6f:56:b1:65:db:ab:
                    15:d6:69:76:4e:22:08:5e:c3:44:08:14:02:7e:f3:
                    42:ff:34:a4:2f:35:c1:20:7e:26:64:29:74:a6:aa:
                    79:a1:30:73:1c:23:5f:96:ab:d0:47:cb:63:25:5b:
                    17:a9:e1:65:ef:af:4f:ff:b2:43:c0:41:ae:b5:f4:
                    2f:fa:d4:38:8d:bf:56:84:9f:24:ab:10:dd:e9:33:
                    f7:6d:27:0b:e0:cd:ad:da:97:14:3c:c1:aa:9e:87:
                    a7:92:28:bd:4d:27:c9:7e:cd:3c:29:9a:15:97:d4:
                    a3:56:21
                Exponent: 65537 (0x10001)
        X509v3 extensions:
            X509v3 Basic Constraints: critical
                CA:TRUE, pathlen:0
            X509v3 CRL Distribution Points: 
                URI:https://www.mirbsd.org/CA.crl
                URI:http://users.unixforge.de/~tglaser/MirBSD/CA.crl

            X509v3 Extended Key Usage: 
                TLS Web Client Authentication, Code Signing, E-mail Protection, IPSec End System, IPSec Tunnel, IPSec User, Microsoft Trust List Signing, Microsoft Commercial Code Signing, Microsoft Individual Code Signing, Microsoft Encrypted File System, Microsoft Server Gated Crypto, Netscape Server Gated Crypto, TLS Web Server Authentication, Time Stamping, 1.3.6.1.4.1.311.10.3.4.1, 1.3.6.1.4.1.311.10.3.5, 1.3.6.1.4.1.311.10.3.6, 1.3.6.1.4.1.311.10.3.7, 1.3.6.1.4.1.311.10.3.8, 1.3.6.1.5.5.8.2.2
            X509v3 Key Usage: critical
                Digital Signature, Non Repudiation, Key Encipherment, Data Encipherment, Certificate Sign, CRL Sign
            Netscape CA Policy Url: 
                https://www.mirbsd.org/CA.htm
            Netscape Cert Type: 
                SSL Client, SSL Server, S/MIME, Object Signing, SSL CA, S/MIME CA, Object Signing CA
            X509v3 Subject Alternative Name: 
                URI:https://www.mirbsd.org/CA.htm, URI:http://users.unixforge.de/~tglaser/MirBSD/CA.htm
            X509v3 Subject Key Identifier: 
                3C:47:94:50:D0:E1:E4:D3:D1:A1:01:A6:F5:A5:C4:F1:B2:D2:2C:56
    Signature Algorithm: sha1WithRSAEncryption
        36:6a:15:00:cf:e8:a7:7a:4d:64:9f:10:28:f7:66:bc:49:7b:
        c5:a7:d0:6e:82:a1:7f:57:a8:15:69:ba:e4:67:0c:13:dc:5e:
        6f:ce:9c:9a:56:e0:17:b4:11:2c:9b:b5:06:9e:9c:6c:7f:c9:
        0d:6a:cc:e8:45:4e:66:57:27:a0:ee:65:95:17:93:36:4f:8a:
        84:aa:e0:92:dd:ba:c5:c7:88:d2:90:ea:b2:66:37:63:14:ab:
        8f:0b:ef:37:94:33:fd:9c:18:f0:c4:06:98:b7:02:40:1f:8d:
        87:e3:c3:da:2c:35:b7:be:8b:4d:c4:2b:f7:7c:70:ab:43:7a:
        e9:46:71:b0:fe:6e:bf:67:3b:cd:0e:77:38:5a:3a:39:01:a8:
        99:96:e2:b2:89:fd:73:7a:e8:81:a8:66:b1:81:33:53:02:a5:
        95:7e:5d:61:7a:21:e8:d2:dd:ff:47:b7:eb:10:ee:28:43:3d:
        65:7d:d1:03:6a:e6:ce:65:bf:1b:9b:f4:c3:3a:f1:d0:0c:b9:
        b0:5e:f1:43:7c:2a:f6:a2:56:f6:ff:7d:86:da:ab:e7:51:3e:
        3f:65:14:75:8e:2b:9e:ff:ed:0e:b7:85:18:f9:67:48:aa:98:
        0a:43:8e:be:59:b2:83:4b:0d:fb:dd:8c:3a:f1:19:79:98:4e:
        07:2a:45:33:0e:e0:f1:7c:83:4a:0c:94:77:05:96:56:14:2f:
        55:30:d5:22:72:81:c1:d3:48:59:07:da:7c:32:49:81:ee:9b:
        83:e0:82:da:c6:6c:7d:59:f7:73:53:48:42:0e:1d:8e:38:f0:
        42:0c:9e:78:68:9f:dc:1d:7e:f1:06:31:fe:80:e7:f4:4e:d9:
        54:91:1e:ba:fb:14:ef:87:ab:af:25:e7:7b:27:df:77:a2:6d:
        f5:bf:46:dc:7c:79:c9:21:48:1b:b1:6e:01:d6:22:26:25:4d:
        53:77:c0:12:d8:2a:2d:86:eb:9c:f8:3a:a8:7b:3e:5c:2f:2a:
        b9:03:cf:09:9a:d3:85:99:a9:e9:dd:bc:0e:2d:75:1a:f8:9d:
        29:1f:1f:74:f6:25:86:8e:47:2a:24:6d:aa:76:06:75:da:cb:
        4b:14:78:23:65:13:6f:f1:bd:24:c9:1b:8d:28:8b:e6:14:81:
        5c:28:ae:28:7e:80:88:d4:b7:9f:ea:d5:ba:dd:3b:9f:16:a6:
        6c:76:64:1b:a5:bb:59:cb:15:da:da:3c:ae:53:dc:3a:73:a8:
        04:9e:2f:6c:29:89:5f:84:db:06:80:59:65:95:b2:88:11:b4:
        5e:ed:88:77:1b:11:97:7b:b3:04:4e:f3:57:11:39:86:8e:23:
        ae:5c:00:8d:b1:86:b5:b7
-----BEGIN CERTIFICATE-----
MIIHkTCCBXmgAwIBAgIJAPLL6CFCINaEMA0GCSqGSIb3DQEBBQUAMGoxCzAJBgNV
BAYTAkRFMQswCQYDVQQIDAJOVzENMAsGA1UEBwwEQm9ubjEPMA0GA1UECgwGTWly
QlNEMRAwDgYDVQQDDAdNQ0Eg4oWjMRwwGgYJKoZIhvcNAQkBFg1jYUBtaXJic2Qu
b3JnMB4XDTE0MDMyOTEyNDkyN1oXDTM0MDMyOTEyNDkyN1owajELMAkGA1UEBhMC
REUxCzAJBgNVBAgMAk5XMQ0wCwYDVQQHDARCb25uMQ8wDQYDVQQKDAZNaXJCU0Qx
EDAOBgNVBAMMB01DQSDihaMxHDAaBgkqhkiG9w0BCQEWDWNhQG1pcmJzZC5vcmcw
ggIiMA0GCSqGSIb3DQEBAQUAA4ICDwAwggIKAoICAQDf3lyNc0qHHsznBMm8j68G
dzCVS8w90GLz1W/X3HFTKdtW8JpJbO9X2pQS1bUJfh6ONlKd5LfbgAxQXZODmLFe
xqEuihpTizXCY+w2wylZpr2aICAdYEHaSGwNfsoL3UYWePNB/yVyCA2l02EGdi7s
sxnjhGop5iVupSi7DMdoRyZ+fHG8igY+tQJ0zZlV52tzss9qITIfxRuFmaqPJ2AC
PU0Jq2dFqtf4zHoqXzSJwGlhiwQLtcBtOdtkRXZAgpVe0ZWJKHh6wNmfDpnlm/PS
NW5GIfbsP3FMTvu8YZQB+qlV20NDy+5oWWcePAnjIlJNfnR4eNsO36bJPOfJyWk7
2Df8KvYOKdwjMGSHtKxDUscOAST3uK2AWNSn566SyGThz3rlpKl72qkFJhTggZN7
FssUA172qmbOhbij0R/Waa5vxiNn1MROWz6luFQPJsPwcfQfV3K/nfVr8KPZw1Xq
wvP8wGJU38xNPkuSNg87Ik7uzG7murMpF8RgrAoV8TO4LQSqODGqqEx1hmJipW9W
sWXbqxXWaXZOIghew0QIFAJ+80L/NKQvNcEgfiZkKXSmqnmhMHMcI1+Wq9BHy2Ml
Wxep4WXvr0//skPAQa619C/61DiNv1aEnySrEN3pM/dtJwvgza3alxQ8waqeh6eS
KL1NJ8l+zTwpmhWX1KNWIQIDAQABo4ICODCCAjQwEgYDVR0TAQH/BAgwBgEB/wIB
ADBmBgNVHR8EXzBdMCOgIaAfhh1odHRwczovL3d3dy5taXJic2Qub3JnL0NBLmNy
bDA2oDSgMoYwaHR0cDovL3VzZXJzLnVuaXhmb3JnZS5kZS9+dGdsYXNlci9NaXJC
U0QvQ0EuY3JsMIHpBgNVHSUEgeEwgd4GCCsGAQUFBwMCBggrBgEFBQcDAwYIKwYB
BQUHAwQGCCsGAQUFBwMFBggrBgEFBQcDBgYIKwYBBQUHAwcGCisGAQQBgjcKAwEG
CisGAQQBgjcCARYGCisGAQQBgjcCARUGCisGAQQBgjcKAwQGCisGAQQBgjcKAwMG
CWCGSAGG+EIEAQYIKwYBBQUHAwEGCCsGAQUFBwMIBgsrBgEEAYI3CgMEAQYKKwYB
BAGCNwoDBQYKKwYBBAGCNwoDBgYKKwYBBAGCNwoDBwYKKwYBBAGCNwoDCAYIKwYB
BQUIAgIwDgYDVR0PAQH/BAQDAgH2MCwGCWCGSAGG+EIBCAQfFh1odHRwczovL3d3
dy5taXJic2Qub3JnL0NBLmh0bTARBglghkgBhvhCAQEEBAMCAPcwWgYDVR0RBFMw
UYYdaHR0cHM6Ly93d3cubWlyYnNkLm9yZy9DQS5odG2GMGh0dHA6Ly91c2Vycy51
bml4Zm9yZ2UuZGUvfnRnbGFzZXIvTWlyQlNEL0NBLmh0bTAdBgNVHQ4EFgQUPEeU
UNDh5NPRoQGm9aXE8bLSLFYwDQYJKoZIhvcNAQEFBQADggIBADZqFQDP6Kd6TWSf
ECj3ZrxJe8Wn0G6CoX9XqBVpuuRnDBPcXm/OnJpW4Be0ESybtQaenGx/yQ1qzOhF
TmZXJ6DuZZUXkzZPioSq4JLdusXHiNKQ6rJmN2MUq48L7zeUM/2cGPDEBpi3AkAf
jYfjw9osNbe+i03EK/d8cKtDeulGcbD+br9nO80OdzhaOjkBqJmW4rKJ/XN66IGo
ZrGBM1MCpZV+XWF6IejS3f9Ht+sQ7ihDPWV90QNq5s5lvxub9MM68dAMubBe8UN8
KvaiVvb/fYbaq+dRPj9lFHWOK57/7Q63hRj5Z0iqmApDjr5ZsoNLDfvdjDrxGXmY
TgcqRTMO4PF8g0oMlHcFllYUL1Uw1SJygcHTSFkH2nwySYHum4PggtrGbH1Z93NT
SEIOHY448EIMnnhon9wdfvEGMf6A5/RO2VSRHrr7FO+Hq68l53sn33eibfW/Rtx8
eckhSBuxbgHWIiYlTVN3wBLYKi2G65z4Oqh7PlwvKrkDzwma04WZqendvA4tdRr4
nSkfH3T2JYaORyokbap2BnXay0sUeCNlE2/xvSTJG40oi+YUgVworih+gIjUt5/q
1brdO58Wpmx2ZBulu1nLFdraPK5T3DpzqASeL2wpiV+E2waAWWWVsogRtF7tiHcb
EZd7swRO81cROYaOI65cAI2xhrW3
-----END CERTIFICATE-----
