Certificate:
    Data:
        Version: 3 (0x2)
        Serial Number: 128083 (0x1f453)
        Signature Algorithm: sha1WithRSAEncryption
        Issuer: O=Root CA, OU=http://www.cacert.org, CN=CA Cert Signing Authority/emailAddress=support@cacert.org
        Validity
            Not Before: Feb 21 02:29:00 2006 GMT
            Not After : Feb 21 02:29:00 2007 GMT
        Subject: CN=Thorsten Glaser/emailAddress=signcode@mirbsd.de
        Subject Public Key Info:
            Public Key Algorithm: rsaEncryption
            RSA Public Key: (8192 bit)
                Modulus (8192 bit):
                    00:c0:7b:3c:14:db:2f:fc:59:ce:ab:41:ca:aa:70:
                    0a:b5:ee:48:50:3a:28:d4:71:48:a1:d9:21:ed:d8:
                    2b:a6:c5:b6:e5:6d:3c:b4:b8:9a:b9:54:57:95:76:
                    8d:80:bb:6c:a7:4a:5a:bc:fc:49:ac:34:c8:7b:80:
                    ca:94:3a:8e:3a:17:ff:b0:c7:6e:3d:1d:ca:f6:89:
                    45:6e:87:3b:03:b4:aa:ca:a9:c6:38:f9:c1:80:d7:
                    2b:46:c6:71:dd:a2:df:63:97:a3:43:b1:dc:b2:31:
                    7a:7b:74:4e:92:98:c8:57:7d:bd:8c:ec:d3:2d:36:
                    bc:90:79:09:a9:37:2b:54:ff:f7:4a:c3:c7:4d:60:
                    68:b3:22:b9:07:c7:14:0e:33:55:21:6d:e7:3b:6e:
                    52:41:9f:51:a1:0e:67:08:e8:77:dc:d5:0b:59:05:
                    25:bd:aa:7a:63:00:4e:31:01:ee:91:5e:4b:17:c8:
                    0e:f6:0e:7c:4e:00:92:63:d1:bb:f9:cc:10:88:25:
                    23:c6:51:6b:87:a6:09:15:f0:95:2c:7b:3b:a6:45:
                    5e:76:7a:38:2a:90:99:fa:3d:ae:4c:18:53:77:b4:
                    d1:a9:f7:d9:9e:30:99:4d:25:31:59:d2:ad:26:46:
                    b0:c7:fe:94:10:4e:0e:34:a8:78:cc:1d:44:8c:ff:
                    c8:a5:aa:99:0e:27:97:e4:3f:b0:f0:38:20:ab:3e:
                    03:23:dc:6b:c2:51:75:a7:5b:58:e8:23:9e:25:28:
                    cc:9a:15:d8:8e:e7:74:2c:ca:a6:ce:8e:e4:c1:db:
                    10:65:73:fa:0e:f1:e2:8a:20:43:f6:5a:8a:3f:5b:
                    31:b2:32:87:5a:ec:37:8f:75:89:25:58:75:18:17:
                    50:08:ef:47:5d:dd:2a:e7:b7:30:7a:51:1f:22:b6:
                    40:6c:5e:7f:a8:51:65:b0:8b:13:6c:6d:45:f5:51:
                    dd:54:b6:4a:4d:2e:7d:f8:cc:50:50:e8:88:85:80:
                    43:ba:2e:29:f2:72:06:29:54:9e:f2:79:ab:ed:d2:
                    d8:bb:e0:4e:80:0a:e6:13:1e:b2:95:48:a9:b8:70:
                    6c:22:a8:59:71:83:e8:06:82:bb:65:0c:6d:27:f3:
                    9d:f4:5d:59:ad:11:87:1b:f2:6d:13:fc:c1:5f:d1:
                    05:b9:d9:90:29:e8:95:ea:92:b0:ca:ac:9c:d2:7c:
                    83:12:43:ce:5b:3c:eb:b7:64:9f:53:f1:0e:7a:4e:
                    07:44:a8:cc:e1:21:9c:e9:40:6a:d7:ca:07:cc:04:
                    0f:cd:a6:fb:80:b3:c9:b3:2f:d9:6a:62:09:83:c5:
                    48:f9:15:21:ce:ee:48:37:81:68:09:f6:09:ad:1f:
                    5c:a3:c7:10:e3:7b:38:5a:26:f5:a2:43:67:0d:9f:
                    24:d2:76:33:35:97:b3:f2:79:9d:53:53:4f:19:79:
                    f7:09:d7:6c:fa:de:a6:30:00:a2:f6:81:f1:30:b2:
                    2e:a0:64:aa:96:a7:76:fd:8b:46:b1:ca:f3:77:cd:
                    e4:00:e4:09:d4:ba:31:db:a1:e5:84:e3:b5:f2:ff:
                    c3:96:4d:c3:1f:85:4f:79:fe:7b:a7:73:e2:92:1f:
                    8e:3d:1d:a6:0d:a5:1d:b6:bc:4b:64:25:12:a1:a2:
                    8a:5a:9e:50:ae:d4:27:f2:09:05:7d:5b:ff:7b:3a:
                    a6:41:1c:12:e5:84:2f:05:39:d4:9f:d4:98:34:62:
                    0f:1a:3c:6e:fb:b3:b5:d5:6d:f4:41:0b:92:53:09:
                    40:9c:93:76:26:ff:3c:dc:54:29:9c:fb:89:a7:f2:
                    10:3e:cc:2c:c4:60:da:64:7e:9b:47:bc:d0:f8:a1:
                    9f:42:0a:44:19:b8:8f:d8:b8:0a:8f:56:a8:e1:98:
                    e7:18:a6:04:ef:c1:57:9f:49:54:c0:cb:91:ea:28:
                    f9:18:c2:85:ff:12:66:70:57:e8:d9:85:2a:6b:10:
                    97:44:83:5b:a2:9d:32:71:2a:f5:5c:bc:79:2f:36:
                    c8:bf:d3:3f:84:bc:e6:a5:90:67:65:fa:86:0a:03:
                    4e:2b:35:fa:bd:14:61:35:f6:21:c7:6b:b4:70:21:
                    0c:67:21:cf:74:e4:20:53:cc:7f:73:05:4a:96:8a:
                    f5:35:d6:ff:ec:74:f9:25:c7:ce:a8:6a:76:af:b7:
                    95:bb:61:aa:bb:2a:c8:ab:87:81:a9:79:53:06:4b:
                    58:b9:d4:eb:66:97:62:62:86:61:9e:46:9b:b3:9f:
                    e1:11:a5:8a:1d:44:23:28:a4:21:a4:24:76:6a:0e:
                    36:c1:e8:af:3c:e0:41:f8:18:9d:c2:41:68:b4:38:
                    3f:f5:ad:df:38:19:06:4a:83:ef:82:bc:97:5e:3b:
                    6a:f3:a9:d6:1e:10:92:d4:fc:2a:50:4b:3e:f1:a3:
                    c9:b3:19:00:9a:e0:f9:76:e9:d7:f6:5b:f4:40:ff:
                    00:a7:99:c3:b3:ff:f7:40:2c:6d:f4:ac:51:d8:06:
                    df:8c:10:80:02:5d:d0:73:f9:04:01:45:07:f4:c9:
                    c3:a3:8e:b1:5f:58:c4:6a:15:5b:fd:00:21:19:d7:
                    a7:da:5e:20:7a:b7:e6:cb:ce:1b:c5:5a:04:40:f9:
                    f0:bf:df:06:bd:aa:68:e0:17:6c:c8:4a:76:78:86:
                    c6:e7:40:39:9f:72:e2:6c:d5:6a:9e:62:99:6e:63:
                    38:06:9e:0d:cc:07:11:06:ec:be:5c:cf:6c:70:53:
                    df:17:49:51:27
                Exponent: 65537 (0x10001)
        X509v3 extensions:
            X509v3 Basic Constraints: critical
                CA:FALSE
            Netscape Comment: 
                To get your own certificate for FREE head over to http://www.CAcert.org
            Authority Information Access: 
                OCSP - URI:http://ocsp.cacert.org

            X509v3 Subject Alternative Name: 
                email:signcode@mirbsd.de
    Signature Algorithm: sha1WithRSAEncryption
        33:62:33:7b:bf:fe:6d:6d:26:f5:87:a0:cb:0c:2f:53:3f:16:
        3f:ca:43:f1:39:09:4a:71:6f:21:c4:c6:ea:eb:0a:6f:0a:3f:
        d8:e7:fb:16:e4:02:d9:32:b1:fe:44:8e:42:ca:a9:ef:f3:1b:
        b0:4f:d4:69:39:3f:b3:60:80:bd:32:4e:fb:e6:7b:77:30:4e:
        22:1c:24:54:52:a1:8a:c2:7a:c8:bb:67:ca:2f:ec:f5:09:2d:
        d8:ff:64:9e:6c:6b:58:66:fc:87:95:c8:ad:ad:fc:54:9d:8a:
        e8:83:db:7d:75:0f:7f:a2:24:77:a3:15:83:33:33:c6:da:23:
        b6:03:61:91:c3:a2:3d:85:72:96:c7:28:ea:47:c4:8c:f1:ab:
        0a:4b:af:5f:af:d5:6f:c2:19:97:5e:e1:14:cc:0d:64:2c:9e:
        d5:5e:f0:1a:e6:70:8a:8e:f9:9e:6c:79:f6:4d:7a:34:4b:2d:
        78:da:22:cf:2f:be:b7:f4:86:4e:d9:fa:36:ec:5c:2b:7e:ae:
        89:7e:5f:2b:73:aa:af:d8:fe:a3:00:91:fb:2a:fd:b5:d0:2b:
        e9:2b:ab:9e:10:01:64:3c:ca:c7:19:a0:f9:56:53:07:e8:71:
        b6:b7:7b:7e:2c:df:cd:23:19:73:2b:33:b9:ef:58:ab:72:28:
        6f:11:e4:7b:05:32:55:96:c4:81:96:98:52:3a:85:3d:d8:c1:
        07:ab:b2:a1:66:68:a1:37:1f:5c:8c:78:db:db:50:1d:6c:96:
        75:34:0a:7e:1b:88:be:cb:22:21:71:0a:13:5c:9f:40:44:6c:
        93:d5:51:0c:1a:0c:90:ed:b8:e2:c9:83:08:2e:42:e8:08:eb:
        88:35:5d:e6:20:f9:a4:4c:39:4d:c2:8c:97:10:49:3e:d8:b2:
        69:a5:3d:4a:fb:8c:b6:a0:5b:53:74:09:1f:24:4c:4b:77:14:
        74:f3:e3:94:bd:f3:28:2d:db:85:26:2b:cf:8d:85:45:ce:20:
        38:3a:94:9d:fd:9a:bf:30:8f:e4:e2:56:3f:c1:08:10:b2:1e:
        6e:00:89:0a:2e:77:19:57:1f:42:4a:dc:b9:20:54:b5:b1:0b:
        85:e3:1a:42:83:6c:8e:b9:06:15:e8:3b:20:75:39:51:a3:84:
        39:4b:dd:f5:3d:a8:78:45:24:9c:a6:2e:63:5f:17:8f:3b:c2:
        70:23:48:7c:53:f2:a1:22:e2:4b:89:6b:9d:23:81:b5:df:57:
        6f:57:4f:f5:6a:d6:ff:94:6f:d5:c1:25:80:1f:14:cb:80:c4:
        39:5b:6e:b8:3b:ac:da:a2:b7:ba:81:6a:c1:2b:8e:18:7d:85:
        be:6c:36:a7:e4:14:70:7b
-----BEGIN CERTIFICATE-----
MIIH8DCCBdigAwIBAgIDAfRTMA0GCSqGSIb3DQEBBQUAMHkxEDAOBgNVBAoTB1Jv
b3QgQ0ExHjAcBgNVBAsTFWh0dHA6Ly93d3cuY2FjZXJ0Lm9yZzEiMCAGA1UEAxMZ
Q0EgQ2VydCBTaWduaW5nIEF1dGhvcml0eTEhMB8GCSqGSIb3DQEJARYSc3VwcG9y
dEBjYWNlcnQub3JnMB4XDTA2MDIyMTAyMjkwMFoXDTA3MDIyMTAyMjkwMFowPTEY
MBYGA1UEAxMPVGhvcnN0ZW4gR2xhc2VyMSEwHwYJKoZIhvcNAQkBFhJzaWduY29k
ZUBtaXJic2QuZGUwggQiMA0GCSqGSIb3DQEBAQUAA4IEDwAwggQKAoIEAQDAezwU
2y/8Wc6rQcqqcAq17khQOijUcUih2SHt2CumxbblbTy0uJq5VFeVdo2Au2ynSlq8
/EmsNMh7gMqUOo46F/+wx249Hcr2iUVuhzsDtKrKqcY4+cGA1ytGxnHdot9jl6ND
sdyyMXp7dE6SmMhXfb2M7NMtNryQeQmpNytU//dKw8dNYGizIrkHxxQOM1Uhbec7
blJBn1GhDmcI6Hfc1QtZBSW9qnpjAE4xAe6RXksXyA72DnxOAJJj0bv5zBCIJSPG
UWuHpgkV8JUsezumRV52ejgqkJn6Pa5MGFN3tNGp99meMJlNJTFZ0q0mRrDH/pQQ
Tg40qHjMHUSM/8ilqpkOJ5fkP7DwOCCrPgMj3GvCUXWnW1joI54lKMyaFdiO53Qs
yqbOjuTB2xBlc/oO8eKKIEP2Woo/WzGyModa7DePdYklWHUYF1AI70dd3SrntzB6
UR8itkBsXn+oUWWwixNsbUX1Ud1UtkpNLn34zFBQ6IiFgEO6LinycgYpVJ7yeavt
0ti74E6ACuYTHrKVSKm4cGwiqFlxg+gGgrtlDG0n8530XVmtEYcb8m0T/MFf0QW5
2ZAp6JXqkrDKrJzSfIMSQ85bPOu3ZJ9T8Q56TgdEqMzhIZzpQGrXygfMBA/NpvuA
s8mzL9lqYgmDxUj5FSHO7kg3gWgJ9gmtH1yjxxDjezhaJvWiQ2cNnyTSdjM1l7Py
eZ1TU08ZefcJ12z63qYwAKL2gfEwsi6gZKqWp3b9i0axyvN3zeQA5AnUujHboeWE
47Xy/8OWTcMfhU95/nunc+KSH449HaYNpR22vEtkJRKhoopanlCu1CfyCQV9W/97
OqZBHBLlhC8FOdSf1Jg0Yg8aPG77s7XVbfRBC5JTCUCck3Ym/zzcVCmc+4mn8hA+
zCzEYNpkfptHvND4oZ9CCkQZuI/YuAqPVqjhmOcYpgTvwVefSVTAy5HqKPkYwoX/
EmZwV+jZhSprEJdEg1uinTJxKvVcvHkvNsi/0z+EvOalkGdl+oYKA04rNfq9FGE1
9iHHa7RwIQxnIc905CBTzH9zBUqWivU11v/sdPklx86oanavt5W7Yaq7Ksirh4Gp
eVMGS1i51Otml2JihmGeRpuzn+ERpYodRCMopCGkJHZqDjbB6K884EH4GJ3CQWi0
OD/1rd84GQZKg++CvJdeO2rzqdYeEJLU/CpQSz7xo8mzGQCa4Pl26df2W/RA/wCn
mcOz//dALG30rFHYBt+MEIACXdBz+QQBRQf0ycOjjrFfWMRqFVv9ACEZ16faXiB6
t+bLzhvFWgRA+fC/3wa9qmjgF2zISnZ4hsbnQDmfcuJs1WqeYpluYzgGng3MBxEG
7L5cz2xwU98XSVEnAgMBAAGjgbwwgbkwDAYDVR0TAQH/BAIwADBWBglghkgBhvhC
AQ0ESRZHVG8gZ2V0IHlvdXIgb3duIGNlcnRpZmljYXRlIGZvciBGUkVFIGhlYWQg
b3ZlciB0byBodHRwOi8vd3d3LkNBY2VydC5vcmcwMgYIKwYBBQUHAQEEJjAkMCIG
CCsGAQUFBzABhhZodHRwOi8vb2NzcC5jYWNlcnQub3JnMB0GA1UdEQQWMBSBEnNp
Z25jb2RlQG1pcmJzZC5kZTANBgkqhkiG9w0BAQUFAAOCAgEAM2Ize7/+bW0m9Yeg
ywwvUz8WP8pD8TkJSnFvIcTG6usKbwo/2Of7FuQC2TKx/kSOQsqp7/MbsE/UaTk/
s2CAvTJO++Z7dzBOIhwkVFKhisJ6yLtnyi/s9Qkt2P9knmxrWGb8h5XIra38VJ2K
6IPbfXUPf6Ikd6MVgzMzxtojtgNhkcOiPYVylsco6kfEjPGrCkuvX6/Vb8IZl17h
FMwNZCye1V7wGuZwio75nmx59k16NEsteNoizy++t/SGTtn6NuxcK36uiX5fK3Oq
r9j+owCR+yr9tdAr6SurnhABZDzKxxmg+VZTB+hxtrd7fizfzSMZcyszue9Yq3Io
bxHkewUyVZbEgZaYUjqFPdjBB6uyoWZooTcfXIx429tQHWyWdTQKfhuIvssiIXEK
E1yfQERsk9VRDBoMkO244smDCC5C6AjriDVd5iD5pEw5TcKMlxBJPtiyaaU9SvuM
tqBbU3QJHyRMS3cUdPPjlL3zKC3bhSYrz42FRc4gODqUnf2avzCP5OJWP8EIELIe
bgCJCi53GVcfQkrcuSBUtbELheMaQoNsjrkGFeg7IHU5UaOEOUvd9T2oeEUknKYu
Y18XjzvCcCNIfFPyoSLiS4lrnSOBtd9Xb1dP9WrW/5Rv1cElgB8Uy4DEOVtuuDus
2qK3uoFqwSuOGH2Fvmw2p+QUcHs=
-----END CERTIFICATE-----
